target datalayout = "e-m:e-p270:32:32-p271:32:32-p272:64:64-i64:64-i128:128-f80:128-n8:16:32:64-S128"
target triple = "x86_64-pc-linux-gnu"

%struct.H5D_chk_idx_info_t = type { ptr, ptr, ptr, ptr }
%struct.H5O_storage_chunk_t = type { i32, i64, ptr, %union.anon.4 }
%union.anon.4 = type { %struct.H5O_storage_chunk_btree_t }
%struct.H5O_storage_chunk_btree_t = type { i64, ptr }
%struct.H5O_storage_chunk_farray_t = type { i64, ptr }
%struct.H5FA_create_t = type { ptr, i8, i8, i64 }
%struct.H5D_farray_ctx_ud_t = type { ptr, i32 }
%struct.H5O_pline_t = type { %struct.H5O_shared_t, i32, i64, i64, ptr }
%struct.H5O_shared_t = type { i32, ptr, i32, %union.anon.5 }
%union.anon.5 = type { %struct.H5O_mesg_loc_t }
%struct.H5O_mesg_loc_t = type { i32, i64 }
%struct.H5O_layout_chunk_t = type { i32, i8, i32, [33 x i32], i32, i32, i64, i64, [33 x i64], [33 x i64], [33 x i64], [33 x i64], %union.anon.0 }
%union.anon.0 = type { %struct.H5O_layout_chunk_earray_t }
%struct.H5O_layout_chunk_earray_t = type { %struct.anon.1, i32, [33 x i32], [33 x i64], [33 x i64] }
%struct.anon.1 = type { i8, i8, i8, i8, i8 }
%struct.H5O_layout_chunk_farray_t = type { %struct.anon }
%struct.anon = type { i8 }

@.str.2 = private unnamed_addr constant [103 x i8] c"generated/home/dtcxzyw/WorkSpace/Projects/compilers/llvm-opt-benchmark/bench/hdf5/hdf5/src/H5Dfarray.c\00", align 1
@H5E_DATASET_g = external global i64, align 8
@H5E_CANTGET_g = external global i64, align 8
@__func__.H5D__farray_idx_create = private unnamed_addr constant [23 x i8] c"H5D__farray_idx_create\00", align 1
@H5E_CANTINIT_g = external global i64, align 8
@.str.13 = private unnamed_addr constant [25 x i8] c"can't create fixed array\00", align 1
@.str.14 = private unnamed_addr constant [32 x i8] c"can't query fixed array address\00", align 1
@H5E_CANTDEPEND_g = external global i64, align 8
@.str.15 = private unnamed_addr constant [51 x i8] c"unable to create flush dependency on object header\00", align 1

; Function Attrs: nounwind uwtable
define internal i32 @H5VM_log2_gen(i64 noundef %0) #0 {
  %2 = alloca i64, align 8
  %3 = alloca i32, align 4
  %4 = alloca i32, align 4
  %5 = alloca i32, align 4
  %6 = alloca i32, align 4
  store i64 %0, ptr %2, align 8
  %7 = load i64, ptr %2, align 8
  %8 = lshr i64 %7, 32
  %9 = trunc i64 %8 to i32
  store i32 %9, ptr %6, align 4
  %10 = icmp ne i32 %9, 0
  br i1 %10, label %11, label %61

11:                                               ; preds = %1
  %12 = load i64, ptr %2, align 8
  %13 = lshr i64 %12, 48
  %14 = trunc i64 %13 to i32
  store i32 %14, ptr %5, align 4
  %15 = icmp ne i32 %14, 0
  br i1 %15, label %16, label %38

16:                                               ; preds = %11
  %17 = load i64, ptr %2, align 8
  %18 = lshr i64 %17, 56
  %19 = trunc i64 %18 to i32
  store i32 %19, ptr %4, align 4
  %20 = icmp ne i32 %19, 0
  br i1 %20, label %21, label %28

21:                                               ; preds = %16
  %22 = load i32, ptr %4, align 4
  %23 = zext i32 %22 to i64
  %24 = getelementptr inbounds [256 x i8], ptr @LogTable256, i64 0, i64 %23
  %25 = load i8, ptr %24, align 1
  %26 = zext i8 %25 to i32
  %27 = add i32 56, %26
  br label %36

28:                                               ; preds = %16
  %29 = load i32, ptr %5, align 4
  %30 = and i32 %29, 255
  %31 = zext i32 %30 to i64
  %32 = getelementptr inbounds [256 x i8], ptr @LogTable256, i64 0, i64 %31
  %33 = load i8, ptr %32, align 1
  %34 = zext i8 %33 to i32
  %35 = add i32 48, %34
  br label %36

36:                                               ; preds = %28, %21
  %37 = phi i32 [ %27, %21 ], [ %35, %28 ]
  store i32 %37, ptr %3, align 4
  br label %60

38:                                               ; preds = %11
  %39 = load i64, ptr %2, align 8
  %40 = lshr i64 %39, 40
  %41 = trunc i64 %40 to i32
  store i32 %41, ptr %4, align 4
  %42 = icmp ne i32 %41, 0
  br i1 %42, label %43, label %50

43:                                               ; preds = %38
  %44 = load i32, ptr %4, align 4
  %45 = zext i32 %44 to i64
  %46 = getelementptr inbounds [256 x i8], ptr @LogTable256, i64 0, i64 %45
  %47 = load i8, ptr %46, align 1
  %48 = zext i8 %47 to i32
  %49 = add i32 40, %48
  br label %58

50:                                               ; preds = %38
  %51 = load i32, ptr %6, align 4
  %52 = and i32 %51, 255
  %53 = zext i32 %52 to i64
  %54 = getelementptr inbounds [256 x i8], ptr @LogTable256, i64 0, i64 %53
  %55 = load i8, ptr %54, align 1
  %56 = zext i8 %55 to i32
  %57 = add i32 32, %56
  br label %58

58:                                               ; preds = %50, %43
  %59 = phi i32 [ %49, %43 ], [ %57, %50 ]
  store i32 %59, ptr %3, align 4
  br label %60

60:                                               ; preds = %58, %36
  br label %110

61:                                               ; preds = %1
  %62 = load i64, ptr %2, align 8
  %63 = lshr i64 %62, 16
  %64 = trunc i64 %63 to i32
  store i32 %64, ptr %5, align 4
  %65 = icmp ne i32 %64, 0
  br i1 %65, label %66, label %88

66:                                               ; preds = %61
  %67 = load i64, ptr %2, align 8
  %68 = lshr i64 %67, 24
  %69 = trunc i64 %68 to i32
  store i32 %69, ptr %4, align 4
  %70 = icmp ne i32 %69, 0
  br i1 %70, label %71, label %78

71:                                               ; preds = %66
  %72 = load i32, ptr %4, align 4
  %73 = zext i32 %72 to i64
  %74 = getelementptr inbounds [256 x i8], ptr @LogTable256, i64 0, i64 %73
  %75 = load i8, ptr %74, align 1
  %76 = zext i8 %75 to i32
  %77 = add i32 24, %76
  br label %86

78:                                               ; preds = %66
  %79 = load i32, ptr %5, align 4
  %80 = and i32 %79, 255
  %81 = zext i32 %80 to i64
  %82 = getelementptr inbounds [256 x i8], ptr @LogTable256, i64 0, i64 %81
  %83 = load i8, ptr %82, align 1
  %84 = zext i8 %83 to i32
  %85 = add i32 16, %84
  br label %86

86:                                               ; preds = %78, %71
  %87 = phi i32 [ %77, %71 ], [ %85, %78 ]
  store i32 %87, ptr %3, align 4
  br label %109

88:                                               ; preds = %61
  %89 = load i64, ptr %2, align 8
  %90 = lshr i64 %89, 8
  %91 = trunc i64 %90 to i32
  store i32 %91, ptr %4, align 4
  %92 = icmp ne i32 %91, 0
  br i1 %92, label %93, label %100

93:                                               ; preds = %88
  %94 = load i32, ptr %4, align 4
  %95 = zext i32 %94 to i64
  %96 = getelementptr inbounds [256 x i8], ptr @LogTable256, i64 0, i64 %95
  %97 = load i8, ptr %96, align 1
  %98 = zext i8 %97 to i32
  %99 = add i32 8, %98
  br label %107

100:                                              ; preds = %88
  %101 = load i64, ptr %2, align 8
  %102 = trunc i64 %101 to i8
  %103 = zext i8 %102 to i64
  %104 = getelementptr inbounds [256 x i8], ptr @LogTable256, i64 0, i64 %103
  %105 = load i8, ptr %104, align 1
  %106 = zext i8 %105 to i32
  br label %107

107:                                              ; preds = %100, %93
  %108 = phi i32 [ %99, %93 ], [ %106, %100 ]
  store i32 %108, ptr %3, align 4
  br label %109

109:                                              ; preds = %107, %86
  br label %110

110:                                              ; preds = %109, %60
  %111 = load i32, ptr %3, align 4
  ret i32 %111
}

; Function Attrs: nounwind uwtable
define internal i32 @H5D__farray_idx_create(ptr noundef %0) #0 {
  %2 = alloca ptr, align 8
  %3 = alloca %struct.H5FA_create_t, align 8
  %4 = alloca %struct.H5D_farray_ctx_ud_t, align 8
  %5 = alloca i32, align 4
  %6 = alloca i8, align 1
  %7 = alloca i32, align 4
  store ptr %0, ptr %2, align 8
  store i32 0, ptr %5, align 4
  store i8 0, ptr %6, align 1
  %8 = load ptr, ptr %2, align 8
  %9 = getelementptr inbounds %struct.H5D_chk_idx_info_t, ptr %8, i32 0, i32 1
  %10 = load ptr, ptr %9, align 8
  %11 = getelementptr inbounds %struct.H5O_pline_t, ptr %10, i32 0, i32 3
  %12 = load i64, ptr %11, align 8
  %13 = icmp ugt i64 %12, 0
  br i1 %13, label %14, label %40

14:                                               ; preds = %1
  %15 = load ptr, ptr %2, align 8
  %16 = getelementptr inbounds %struct.H5D_chk_idx_info_t, ptr %15, i32 0, i32 2
  %17 = load ptr, ptr %16, align 8
  %18 = getelementptr inbounds %struct.H5O_layout_chunk_t, ptr %17, i32 0, i32 5
  %19 = load i32, ptr %18, align 4
  %20 = zext i32 %19 to i64
  %21 = call i32 @H5VM_log2_gen(i64 noundef %20)
  %22 = add i32 %21, 8
  %23 = udiv i32 %22, 8
  %24 = add i32 1, %23
  store i32 %24, ptr %7, align 4
  %25 = load i32, ptr %7, align 4
  %26 = icmp ugt i32 %25, 8
  br i1 %26, label %27, label %28

27:                                               ; preds = %14
  store i32 8, ptr %7, align 4
  br label %28

28:                                               ; preds = %27, %14
  %29 = getelementptr inbounds %struct.H5FA_create_t, ptr %3, i32 0, i32 0
  store ptr @H5FA_CLS_FILT_CHUNK, ptr %29, align 8
  %30 = load ptr, ptr %2, align 8
  %31 = getelementptr inbounds %struct.H5D_chk_idx_info_t, ptr %30, i32 0, i32 0
  %32 = load ptr, ptr %31, align 8
  %33 = call zeroext i8 @H5F_sizeof_addr(ptr noundef %32)
  %34 = zext i8 %33 to i32
  %35 = load i32, ptr %7, align 4
  %36 = add i32 %34, %35
  %37 = add i32 %36, 4
  %38 = trunc i32 %37 to i8
  %39 = getelementptr inbounds %struct.H5FA_create_t, ptr %3, i32 0, i32 1
  store i8 %38, ptr %39, align 8
  br label %47

40:                                               ; preds = %1
  %41 = getelementptr inbounds %struct.H5FA_create_t, ptr %3, i32 0, i32 0
  store ptr @H5FA_CLS_CHUNK, ptr %41, align 8
  %42 = load ptr, ptr %2, align 8
  %43 = getelementptr inbounds %struct.H5D_chk_idx_info_t, ptr %42, i32 0, i32 0
  %44 = load ptr, ptr %43, align 8
  %45 = call zeroext i8 @H5F_sizeof_addr(ptr noundef %44)
  %46 = getelementptr inbounds %struct.H5FA_create_t, ptr %3, i32 0, i32 1
  store i8 %45, ptr %46, align 8
  br label %47

47:                                               ; preds = %40, %28
  %48 = load ptr, ptr %2, align 8
  %49 = getelementptr inbounds %struct.H5D_chk_idx_info_t, ptr %48, i32 0, i32 2
  %50 = load ptr, ptr %49, align 8
  %51 = getelementptr inbounds %struct.H5O_layout_chunk_t, ptr %50, i32 0, i32 12
  %52 = getelementptr inbounds %struct.H5O_layout_chunk_farray_t, ptr %51, i32 0, i32 0
  %53 = getelementptr inbounds %struct.anon, ptr %52, i32 0, i32 0
  %54 = load i8, ptr %53, align 8
  %55 = getelementptr inbounds %struct.H5FA_create_t, ptr %3, i32 0, i32 2
  store i8 %54, ptr %55, align 1
  %56 = load ptr, ptr %2, align 8
  %57 = getelementptr inbounds %struct.H5D_chk_idx_info_t, ptr %56, i32 0, i32 2
  %58 = load ptr, ptr %57, align 8
  %59 = getelementptr inbounds %struct.H5O_layout_chunk_t, ptr %58, i32 0, i32 7
  %60 = load i64, ptr %59, align 8
  %61 = getelementptr inbounds %struct.H5FA_create_t, ptr %3, i32 0, i32 3
  store i64 %60, ptr %61, align 8
  %62 = load ptr, ptr %2, align 8
  %63 = getelementptr inbounds %struct.H5D_chk_idx_info_t, ptr %62, i32 0, i32 0
  %64 = load ptr, ptr %63, align 8
  %65 = getelementptr inbounds %struct.H5D_farray_ctx_ud_t, ptr %4, i32 0, i32 0
  store ptr %64, ptr %65, align 8
  %66 = load ptr, ptr %2, align 8
  %67 = getelementptr inbounds %struct.H5D_chk_idx_info_t, ptr %66, i32 0, i32 2
  %68 = load ptr, ptr %67, align 8
  %69 = getelementptr inbounds %struct.H5O_layout_chunk_t, ptr %68, i32 0, i32 5
  %70 = load i32, ptr %69, align 4
  %71 = getelementptr inbounds %struct.H5D_farray_ctx_ud_t, ptr %4, i32 0, i32 1
  store i32 %70, ptr %71, align 8
  %72 = load ptr, ptr %2, align 8
  %73 = getelementptr inbounds %struct.H5D_chk_idx_info_t, ptr %72, i32 0, i32 0
  %74 = load ptr, ptr %73, align 8
  %75 = call ptr @H5FA_create(ptr noundef %74, ptr noundef %3, ptr noundef %4)
  %76 = load ptr, ptr %2, align 8
  %77 = getelementptr inbounds %struct.H5D_chk_idx_info_t, ptr %76, i32 0, i32 3
  %78 = load ptr, ptr %77, align 8
  %79 = getelementptr inbounds %struct.H5O_storage_chunk_t, ptr %78, i32 0, i32 3
  %80 = getelementptr inbounds %struct.H5O_storage_chunk_farray_t, ptr %79, i32 0, i32 1
  store ptr %75, ptr %80, align 8
  %81 = icmp eq ptr null, %75
  br i1 %81, label %82, label %97

82:                                               ; preds = %47
  br label %83

83:                                               ; preds = %82
  br label %84

84:                                               ; preds = %83
  br label %85

85:                                               ; preds = %84
  %86 = load i64, ptr @H5E_DATASET_g, align 8
  %87 = load i64, ptr @H5E_CANTINIT_g, align 8
  %88 = call i32 (ptr, ptr, i32, i64, i64, ptr, ...) @H5E_printf_stack(ptr noundef @.str.2, ptr noundef @__func__.H5D__farray_idx_create, i32 noundef 800, i64 noundef %86, i64 noundef %87, ptr noundef @.str.13)
  br label %89

89:                                               ; preds = %85
  store i8 1, ptr %6, align 1
  %90 = load i8, ptr %6, align 1
  %91 = trunc i8 %90 to i1
  %92 = zext i1 %91 to i8
  store i8 %92, ptr %6, align 1
  br label %93

93:                                               ; preds = %89
  br label %94

94:                                               ; preds = %93
  store i32 -1, ptr %5, align 4
  br label %153

95:                                               ; No predecessors!
  br label %96

96:                                               ; preds = %95
  br label %97

97:                                               ; preds = %96, %47
  %98 = load ptr, ptr %2, align 8
  %99 = getelementptr inbounds %struct.H5D_chk_idx_info_t, ptr %98, i32 0, i32 3
  %100 = load ptr, ptr %99, align 8
  %101 = getelementptr inbounds %struct.H5O_storage_chunk_t, ptr %100, i32 0, i32 3
  %102 = getelementptr inbounds %struct.H5O_storage_chunk_farray_t, ptr %101, i32 0, i32 1
  %103 = load ptr, ptr %102, align 8
  %104 = load ptr, ptr %2, align 8
  %105 = getelementptr inbounds %struct.H5D_chk_idx_info_t, ptr %104, i32 0, i32 3
  %106 = load ptr, ptr %105, align 8
  %107 = getelementptr inbounds %struct.H5O_storage_chunk_t, ptr %106, i32 0, i32 1
  %108 = call i32 @H5FA_get_addr(ptr noundef %103, ptr noundef %107)
  %109 = icmp slt i32 %108, 0
  br i1 %109, label %110, label %125

110:                                              ; preds = %97
  br label %111

111:                                              ; preds = %110
  br label %112

112:                                              ; preds = %111
  br label %113

113:                                              ; preds = %112
  %114 = load i64, ptr @H5E_DATASET_g, align 8
  %115 = load i64, ptr @H5E_CANTGET_g, align 8
  %116 = call i32 (ptr, ptr, i32, i64, i64, ptr, ...) @H5E_printf_stack(ptr noundef @.str.2, ptr noundef @__func__.H5D__farray_idx_create, i32 noundef 804, i64 noundef %114, i64 noundef %115, ptr noundef @.str.14)
  br label %117

117:                                              ; preds = %113
  store i8 1, ptr %6, align 1
  %118 = load i8, ptr %6, align 1
  %119 = trunc i8 %118 to i1
  %120 = zext i1 %119 to i8
  store i8 %120, ptr %6, align 1
  br label %121

121:                                              ; preds = %117
  br label %122

122:                                              ; preds = %121
  store i32 -1, ptr %5, align 4
  br label %153

123:                                              ; No predecessors!
  br label %124

124:                                              ; preds = %123
  br label %125

125:                                              ; preds = %124, %97
  %126 = load ptr, ptr %2, align 8
  %127 = getelementptr inbounds %struct.H5D_chk_idx_info_t, ptr %126, i32 0, i32 0
  %128 = load ptr, ptr %127, align 8
  %129 = call i32 @H5F_get_intent(ptr noundef %128)
  %130 = and i32 %129, 32
  %131 = icmp ne i32 %130, 0
  br i1 %131, label %132, label %152

132:                                              ; preds = %125
  %133 = load ptr, ptr %2, align 8
  %134 = call i32 @H5D__farray_idx_depend(ptr noundef %133)
  %135 = icmp slt i32 %134, 0
  br i1 %135, label %136, label %151

136:                                              ; preds = %132
  br label %137

137:                                              ; preds = %136
  br label %138

138:                                              ; preds = %137
  br label %139

139:                                              ; preds = %138
  %140 = load i64, ptr @H5E_DATASET_g, align 8
  %141 = load i64, ptr @H5E_CANTDEPEND_g, align 8
  %142 = call i32 (ptr, ptr, i32, i64, i64, ptr, ...) @H5E_printf_stack(ptr noundef @.str.2, ptr noundef @__func__.H5D__farray_idx_create, i32 noundef 810, i64 noundef %140, i64 noundef %141, ptr noundef @.str.15)
  br label %143

143:                                              ; preds = %139
  store i8 1, ptr %6, align 1
  %144 = load i8, ptr %6, align 1
  %145 = trunc i8 %144 to i1
  %146 = zext i1 %145 to i8
  store i8 %146, ptr %6, align 1
  br label %147

147:                                              ; preds = %143
  br label %148

148:                                              ; preds = %147
  store i32 -1, ptr %5, align 4
  br label %153

149:                                              ; No predecessors!
  br label %150

150:                                              ; preds = %149
  br label %151

151:                                              ; preds = %150, %132
  br label %152

152:                                              ; preds = %151, %125
  br label %153

153:                                              ; preds = %152, %148, %122, %94
  %154 = load i32, ptr %5, align 4
  ret i32 %154
}