; Function Attrs: nounwind uwtable
define internal range(i32 -1, 1) i32 @H5D__farray_idx_create(ptr nocapture noundef readonly %0) #1 {
  %2 = alloca %struct.H5FA_create_t, align 8
  %3 = alloca %struct.H5D_farray_ctx_ud_t, align 8
  %4 = getelementptr inbounds i8, ptr %0, i64 8
  %5 = load ptr, ptr %4, align 8
  %6 = getelementptr inbounds i8, ptr %5, i64 56
  %7 = load i64, ptr %6, align 8
  %.not = icmp eq i64 %7, 0
  br i1 %.not, label %47, label %8

8:                                                ; preds = %1
  %9 = getelementptr inbounds i8, ptr %0, i64 16
  %10 = load ptr, ptr %9, align 8
  %11 = getelementptr inbounds i8, ptr %10, i64 148
  %12 = load i32, ptr %11, align 4
  %13 = zext i32 %12 to i64
  %14 = lshr i64 %13, 16
  %.not.i = icmp ult i32 %12, 65536
  br i1 %.not.i, label %28, label %15

15:                                               ; preds = %8
  %.not24.i = icmp ult i32 %12, 16777216
  br i1 %.not24.i, label %22, label %16

16:                                               ; preds = %15
  %17 = lshr i64 %13, 24
  %18 = getelementptr inbounds [256 x i8], ptr @LogTable256, i64 0, i64 %17
  %19 = load i8, ptr %18, align 1
  %20 = zext i8 %19 to i32
  %21 = add nuw nsw i32 %20, 24
  br label %H5VM_log2_gen.exit

22:                                               ; preds = %15
  %23 = and i64 %14, 255
  %24 = getelementptr inbounds [256 x i8], ptr @LogTable256, i64 0, i64 %23
  %25 = load i8, ptr %24, align 1
  %26 = zext i8 %25 to i32
  %27 = add nuw nsw i32 %26, 16
  br label %H5VM_log2_gen.exit

28:                                               ; preds = %8
  %.not23.i = icmp ult i32 %12, 256
  br i1 %.not23.i, label %35, label %29

29:                                               ; preds = %28
  %30 = lshr i64 %13, 8
  %31 = getelementptr inbounds [256 x i8], ptr @LogTable256, i64 0, i64 %30
  %32 = load i8, ptr %31, align 1
  %33 = zext i8 %32 to i32
  %34 = add nuw nsw i32 %33, 8
  br label %H5VM_log2_gen.exit

35:                                               ; preds = %28
  %36 = getelementptr inbounds [256 x i8], ptr @LogTable256, i64 0, i64 %13
  %37 = load i8, ptr %36, align 1
  %38 = zext i8 %37 to i32
  br label %H5VM_log2_gen.exit

H5VM_log2_gen.exit:                               ; preds = %16, %22, %29, %35
  %.0.i = phi i32 [ %21, %16 ], [ %27, %22 ], [ %34, %29 ], [ %38, %35 ]
  %39 = add nuw nsw i32 %.0.i, 8
  %40 = lshr i32 %39, 3
  %41 = tail call i32 @llvm.umin.i32(i32 %40, i32 7)
  store ptr @H5FA_CLS_FILT_CHUNK, ptr %2, align 8
  %42 = load ptr, ptr %0, align 8
  %43 = tail call zeroext i8 @H5F_sizeof_addr(ptr noundef %42) #11
  %44 = trunc nuw nsw i32 %41 to i8
  %45 = add i8 %43, 5
  %46 = add i8 %45, %44
  br label %50

47:                                               ; preds = %1
  store ptr @H5FA_CLS_CHUNK, ptr %2, align 8
  %48 = load ptr, ptr %0, align 8
  %49 = tail call zeroext i8 @H5F_sizeof_addr(ptr noundef %48) #11
  br label %50

50:                                               ; preds = %47, %H5VM_log2_gen.exit
  %.sink = phi i8 [ %49, %47 ], [ %46, %H5VM_log2_gen.exit ]
  %51 = getelementptr inbounds i8, ptr %2, i64 8
  store i8 %.sink, ptr %51, align 8
  %52 = getelementptr inbounds i8, ptr %0, i64 16
  %53 = load ptr, ptr %52, align 8
  %54 = getelementptr inbounds i8, ptr %53, i64 1224
  %55 = load i8, ptr %54, align 8
  %56 = getelementptr inbounds i8, ptr %2, i64 9
  store i8 %55, ptr %56, align 1
  %57 = getelementptr inbounds i8, ptr %53, i64 160
  %58 = load i64, ptr %57, align 8
  %59 = getelementptr inbounds i8, ptr %2, i64 16
  store i64 %58, ptr %59, align 8
  %60 = load ptr, ptr %0, align 8
  store ptr %60, ptr %3, align 8
  %61 = getelementptr inbounds i8, ptr %53, i64 148
  %62 = load i32, ptr %61, align 4
  %63 = getelementptr inbounds i8, ptr %3, i64 8
  store i32 %62, ptr %63, align 8
  %64 = call ptr @H5FA_create(ptr noundef %60, ptr noundef nonnull %2, ptr noundef nonnull %3) #11
  %65 = getelementptr inbounds i8, ptr %0, i64 24
  %66 = load ptr, ptr %65, align 8
  %67 = getelementptr inbounds i8, ptr %66, i64 32
  store ptr %64, ptr %67, align 8
  %68 = icmp eq ptr %64, null
  br i1 %68, label %69, label %73

69:                                               ; preds = %50
  %70 = load i64, ptr @H5E_DATASET_g, align 8
  %71 = load i64, ptr @H5E_CANTINIT_g, align 8
  %72 = call i32 (ptr, ptr, i32, i64, i64, ptr, ...) @H5E_printf_stack(ptr noundef nonnull @.str.2, ptr noundef nonnull @__func__.H5D__farray_idx_create, i32 noundef 800, i64 noundef %70, i64 noundef %71, ptr noundef nonnull @.str.13) #11
  br label %95

73:                                               ; preds = %50
  %74 = load ptr, ptr %65, align 8
  %75 = getelementptr inbounds i8, ptr %74, i64 32
  %76 = load ptr, ptr %75, align 8
  %77 = getelementptr inbounds i8, ptr %74, i64 8
  %78 = call i32 @H5FA_get_addr(ptr noundef %76, ptr noundef nonnull %77) #11
  %79 = icmp slt i32 %78, 0
  br i1 %79, label %80, label %84

80:                                               ; preds = %73
  %81 = load i64, ptr @H5E_DATASET_g, align 8
  %82 = load i64, ptr @H5E_CANTGET_g, align 8
  %83 = call i32 (ptr, ptr, i32, i64, i64, ptr, ...) @H5E_printf_stack(ptr noundef nonnull @.str.2, ptr noundef nonnull @__func__.H5D__farray_idx_create, i32 noundef 804, i64 noundef %81, i64 noundef %82, ptr noundef nonnull @.str.14) #11
  br label %95

84:                                               ; preds = %73
  %85 = load ptr, ptr %0, align 8
  %86 = call i32 @H5F_get_intent(ptr noundef %85) #11
  %87 = and i32 %86, 32
  %.not19 = icmp eq i32 %87, 0
  br i1 %.not19, label %95, label %88

88:                                               ; preds = %84
  %89 = call fastcc i32 @H5D__farray_idx_depend(ptr noundef nonnull %0)
  %90 = icmp slt i32 %89, 0
  br i1 %90, label %91, label %95

91:                                               ; preds = %88
  %92 = load i64, ptr @H5E_DATASET_g, align 8
  %93 = load i64, ptr @H5E_CANTDEPEND_g, align 8
  %94 = call i32 (ptr, ptr, i32, i64, i64, ptr, ...) @H5E_printf_stack(ptr noundef nonnull @.str.2, ptr noundef nonnull @__func__.H5D__farray_idx_create, i32 noundef 810, i64 noundef %92, i64 noundef %93, ptr noundef nonnull @.str.15) #11
  br label %95

95:                                               ; preds = %84, %88, %91, %80, %69
  %.0 = phi i32 [ -1, %69 ], [ -1, %80 ], [ -1, %91 ], [ 0, %88 ], [ 0, %84 ]
  ret i32 %.0
}